; Function Attrs: mustprogress nofree norecurse nosync nounwind willreturn memory(argmem: read) uwtable
define float @Map_NodeReadRefPhaseEst(ptr noundef readonly captures(none) %0, i32 noundef %1) local_unnamed_addr #0 {
  %3 = getelementptr inbounds nuw i8, ptr %0, i64 144
  %4 = load ptr, ptr %3, align 8, !tbaa !3
  %.not = icmp eq ptr %4, null
  br i1 %.not, label %12, label %5

5:                                                ; preds = %2
  %6 = getelementptr inbounds nuw i8, ptr %0, i64 152
  %7 = load ptr, ptr %6, align 8, !tbaa !3
  %.not5 = icmp eq ptr %7, null
  br i1 %.not5, label %12, label %8

8:                                                ; preds = %5
  %9 = getelementptr inbounds nuw i8, ptr %0, i64 44
  %10 = sext i32 %1 to i64
  %11 = getelementptr inbounds [3 x float], ptr %9, i64 0, i64 %10
  br label %14

12:                                               ; preds = %5, %2
  %13 = getelementptr inbounds nuw i8, ptr %0, i64 52
  br label %14

14:                                               ; preds = %12, %8
  %.0.in = phi ptr [ %11, %8 ], [ %13, %12 ]
  %.0 = load float, ptr %.0.in, align 4, !tbaa !10
  ret float %.0
}